; ModuleID = '52/1269.c'
source_filename = "52/1269.c"
target datalayout = "e-m:e-p270:32:32-p271:32:32-p272:64:64-i64:64-f80:128-n8:16:32:64-S128"
target triple = "x86_64-pc-linux-gnu"

@.str = private unnamed_addr constant [6 x i8] c"%d %d\00", align 1
@.str.1 = private unnamed_addr constant [3 x i8] c"%d\00", align 1
@.str.2 = private unnamed_addr constant [4 x i8] c"%d \00", align 1

; Function Attrs: noinline nounwind uwtable
define dso_local void @move(i32* %0, i32 %1) #0 {
  %3 = alloca i32*, align 8
  %4 = alloca i32, align 4
  %5 = alloca i32, align 4
  %6 = alloca i32, align 4
  %7 = alloca i32*, align 8
  store i32* %0, i32** %3, align 8
  store i32 %1, i32* %4, align 4
  %8 = load i32*, i32** %3, align 8
  store i32* %8, i32** %7, align 8
  %9 = load i32*, i32** %7, align 8
  %10 = load i32, i32* %9, align 4
  store i32 %10, i32* %5, align 4
  %11 = load i32*, i32** %7, align 8
  %12 = load i32, i32* %4, align 4
  %13 = sext i32 %12 to i64
  %14 = getelementptr inbounds i32, i32* %11, i64 %13
  %15 = getelementptr inbounds i32, i32* %14, i64 -1
  %16 = load i32, i32* %15, align 4
  %17 = load i32*, i32** %7, align 8
  store i32 %16, i32* %17, align 4
  %18 = load i32*, i32** %7, align 8
  %19 = getelementptr inbounds i32, i32* %18, i32 1
  store i32* %19, i32** %7, align 8
  br label %20

20:                                               ; preds = %28, %2
  %21 = load i32*, i32** %7, align 8
  %22 = load i32, i32* %21, align 4
  store i32 %22, i32* %6, align 4
  %23 = load i32, i32* %5, align 4
  %24 = load i32*, i32** %7, align 8
  store i32 %23, i32* %24, align 4
  %25 = load i32, i32* %6, align 4
  store i32 %25, i32* %5, align 4
  %26 = load i32*, i32** %7, align 8
  %27 = getelementptr inbounds i32, i32* %26, i32 1
  store i32* %27, i32** %7, align 8
  br label %28

28:                                               ; preds = %20
  %29 = load i32*, i32** %7, align 8
  %30 = load i32*, i32** %3, align 8
  %31 = ptrtoint i32* %29 to i64
  %32 = ptrtoint i32* %30 to i64
  %33 = sub i64 %31, %32
  %34 = sdiv exact i64 %33, 4
  %35 = load i32, i32* %4, align 4
  %36 = sext i32 %35 to i64
  %37 = icmp sle i64 %34, %36
  br i1 %37, label %20, label %38

38:                                               ; preds = %28
  ret void
}

; Function Attrs: noinline nounwind uwtable
define dso_local void @main() #0 {
  %1 = alloca i32, align 4
  %2 = alloca i32, align 4
  %3 = alloca i32, align 4
  %4 = alloca [100 x i32], align 16
  %5 = call i32 (i8*, ...) @__isoc99_scanf(i8* getelementptr inbounds ([6 x i8], [6 x i8]* @.str, i64 0, i64 0), i32* %1, i32* %2)
  store i32 0, i32* %3, align 4
  br label %6

6:                                                ; preds = %16, %0
  %7 = load i32, i32* %3, align 4
  %8 = load i32, i32* %1, align 4
  %9 = icmp slt i32 %7, %8
  br i1 %9, label %10, label %19

10:                                               ; preds = %6
  %11 = getelementptr inbounds [100 x i32], [100 x i32]* %4, i64 0, i64 0
  %12 = load i32, i32* %3, align 4
  %13 = sext i32 %12 to i64
  %14 = getelementptr inbounds i32, i32* %11, i64 %13
  %15 = call i32 (i8*, ...) @__isoc99_scanf(i8* getelementptr inbounds ([3 x i8], [3 x i8]* @.str.1, i64 0, i64 0), i32* %14)
  br label %16

16:                                               ; preds = %10
  %17 = load i32, i32* %3, align 4
  %18 = add nsw i32 %17, 1
  store i32 %18, i32* %3, align 4
  br label %6

19:                                               ; preds = %6
  store i32 0, i32* %3, align 4
  br label %20

20:                                               ; preds = %27, %19
  %21 = load i32, i32* %3, align 4
  %22 = load i32, i32* %2, align 4
  %23 = icmp slt i32 %21, %22
  br i1 %23, label %24, label %30

24:                                               ; preds = %20
  %25 = getelementptr inbounds [100 x i32], [100 x i32]* %4, i64 0, i64 0
  %26 = load i32, i32* %1, align 4
  call void @move(i32* %25, i32 %26)
  br label %27

27:                                               ; preds = %24
  %28 = load i32, i32* %3, align 4
  %29 = add nsw i32 %28, 1
  store i32 %29, i32* %3, align 4
  br label %20

30:                                               ; preds = %20
  store i32 0, i32* %3, align 4
  br label %31

31:                                               ; preds = %55, %30
  %32 = load i32, i32* %3, align 4
  %33 = load i32, i32* %1, align 4
  %34 = icmp slt i32 %32, %33
  br i1 %34, label %35, label %58

35:                                               ; preds = %31
  %36 = load i32, i32* %3, align 4
  %37 = load i32, i32* %1, align 4
  %38 = sub nsw i32 %37, 1
  %39 = icmp ne i32 %36, %38
  br i1 %39, label %40, label %47

40:                                               ; preds = %35
  %41 = getelementptr inbounds [100 x i32], [100 x i32]* %4, i64 0, i64 0
  %42 = load i32, i32* %3, align 4
  %43 = sext i32 %42 to i64
  %44 = getelementptr inbounds i32, i32* %41, i64 %43
  %45 = load i32, i32* %44, align 4
  %46 = call i32 (i8*, ...) @printf(i8* getelementptr inbounds ([4 x i8], [4 x i8]* @.str.2, i64 0, i64 0), i32 %45)
  br label %54

47:                                               ; preds = %35
  %48 = getelementptr inbounds [100 x i32], [100 x i32]* %4, i64 0, i64 0
  %49 = load i32, i32* %3, align 4
  %50 = sext i32 %49 to i64
  %51 = getelementptr inbounds i32, i32* %48, i64 %50
  %52 = load i32, i32* %51, align 4
  %53 = call i32 (i8*, ...) @printf(i8* getelementptr inbounds ([3 x i8], [3 x i8]* @.str.1, i64 0, i64 0), i32 %52)
  br label %54

54:                                               ; preds = %47, %40
  br label %55

55:                                               ; preds = %54
  %56 = load i32, i32* %3, align 4
  %57 = add nsw i32 %56, 1
  store i32 %57, i32* %3, align 4
  br label %31

58:                                               ; preds = %31
  ret void
}

declare dso_local i32 @__isoc99_scanf(i8*, ...) #1

declare dso_local i32 @printf(i8*, ...) #1


!llvm.module.flags = !{!0}
!llvm.ident = !{!1}

!0 = !{i32 1, !"wchar_size", i32 4}
!1 = !{!"clang version 10.0.0-4ubuntu1 "}
